#include <math.h>
#include <stdio.h>
#include <stdlib.h>
#include <string.h>
#include <iostream>
using namespace std;

int main()
{
	int a[1001];
	int n,k,i,sum;
	int p,q;
	int control=0;//?????????control
	cin>>n>>k;//??n?k
	for(i=1;i<=n;i++)
	{cin>>a[i];}//????????
	for(p=1;p<=n;p++)
		{for(q=n;q>p;q--)//?????1?n??????n????1???????????????
			{sum=a[p]+a[q];//????sum
	         if(sum==k)//??????k
				 {control=1;//??????
			      break;}//??????
			 }
	    }
	if(control==0)
		cout<<"no";
	else cout<<"yes";//?????????????
		  
	

	
	return 0;
}